
E:/Workplace/2025-fall-yatcpu-test/lab4-renew/csrc/build/say_goodbye:     file format elf32-littleriscv


Disassembly of section .text:

00001000 <_start>:
    1000:	10000137          	lui	sp,0x10000
    1004:	1e8000ef          	jal	11ec <main>

00001008 <loop>:
    1008:	0000006f          	j	1008 <loop>

0000100c <enable_interrupt>:
    100c:	00000297          	auipc	t0,0x0
    1010:	04028293          	addi	t0,t0,64 # 104c <__trap_entry>
    1014:	30529373          	csrrw	t1,mtvec,t0
    1018:	000022b7          	lui	t0,0x2
    101c:	88828293          	addi	t0,t0,-1912 # 1888 <main+0x69c>
    1020:	30029373          	csrrw	t1,mstatus,t0
    1024:	00008067          	ret

00001028 <enable_paging>:
    1028:	800002b7          	lui	t0,0x80000
    102c:	00528293          	addi	t0,t0,5 # 80000005 <_end+0x7ff00005>
    1030:	18029073          	csrw	satp,t0
    1034:	00008067          	ret

00001038 <get_mtval>:
    1038:	34302573          	csrr	a0,mtval
    103c:	00008067          	ret

00001040 <get_epc>:
    1040:	34102573          	csrr	a0,mepc
    1044:	00008067          	ret

00001048 <tran_handler>:
    1048:	00008067          	ret

0000104c <__trap_entry>:
    104c:	34011073          	csrw	mscratch,sp
    1050:	f8010113          	addi	sp,sp,-128 # fffff80 <_end+0xfefff80>
    1054:	00112223          	sw	ra,4(sp)
    1058:	00312623          	sw	gp,12(sp)
    105c:	00412823          	sw	tp,16(sp)
    1060:	00512a23          	sw	t0,20(sp)
    1064:	00612c23          	sw	t1,24(sp)
    1068:	00712e23          	sw	t2,28(sp)
    106c:	02412023          	sw	tp,32(sp)
    1070:	02912223          	sw	s1,36(sp)
    1074:	02a12423          	sw	a0,40(sp)
    1078:	02b12623          	sw	a1,44(sp)
    107c:	02c12823          	sw	a2,48(sp)
    1080:	02d12a23          	sw	a3,52(sp)
    1084:	02e12c23          	sw	a4,56(sp)
    1088:	02f12e23          	sw	a5,60(sp)
    108c:	05012023          	sw	a6,64(sp)
    1090:	05112223          	sw	a7,68(sp)
    1094:	05212423          	sw	s2,72(sp)
    1098:	05312623          	sw	s3,76(sp)
    109c:	05412823          	sw	s4,80(sp)
    10a0:	05512a23          	sw	s5,84(sp)
    10a4:	05612c23          	sw	s6,88(sp)
    10a8:	05712e23          	sw	s7,92(sp)
    10ac:	07812023          	sw	s8,96(sp)
    10b0:	07912223          	sw	s9,100(sp)
    10b4:	07a12423          	sw	s10,104(sp)
    10b8:	07b12623          	sw	s11,108(sp)
    10bc:	07c12823          	sw	t3,112(sp)
    10c0:	07d12a23          	sw	t4,116(sp)
    10c4:	07e12c23          	sw	t5,120(sp)
    10c8:	07f12e23          	sw	t6,124(sp)
    10cc:	34102573          	csrr	a0,mepc
    10d0:	342025f3          	csrr	a1,mcause
    10d4:	00000097          	auipc	ra,0x0
    10d8:	000000e7          	jalr	zero # 0 <_start-0x1000>
    10dc:	00412083          	lw	ra,4(sp)
    10e0:	00c12183          	lw	gp,12(sp)
    10e4:	01012203          	lw	tp,16(sp)
    10e8:	01412283          	lw	t0,20(sp)
    10ec:	01812303          	lw	t1,24(sp)
    10f0:	01c12383          	lw	t2,28(sp)
    10f4:	02012203          	lw	tp,32(sp)
    10f8:	02412483          	lw	s1,36(sp)
    10fc:	02812503          	lw	a0,40(sp)
    1100:	02c12583          	lw	a1,44(sp)
    1104:	03012603          	lw	a2,48(sp)
    1108:	03412683          	lw	a3,52(sp)
    110c:	03812703          	lw	a4,56(sp)
    1110:	03c12783          	lw	a5,60(sp)
    1114:	04012803          	lw	a6,64(sp)
    1118:	04412883          	lw	a7,68(sp)
    111c:	04812903          	lw	s2,72(sp)
    1120:	04c12983          	lw	s3,76(sp)
    1124:	05012a03          	lw	s4,80(sp)
    1128:	05412a83          	lw	s5,84(sp)
    112c:	05812b03          	lw	s6,88(sp)
    1130:	05c12b83          	lw	s7,92(sp)
    1134:	06012c03          	lw	s8,96(sp)
    1138:	06412c83          	lw	s9,100(sp)
    113c:	06812d03          	lw	s10,104(sp)
    1140:	06c12d83          	lw	s11,108(sp)
    1144:	07012e03          	lw	t3,112(sp)
    1148:	07412e83          	lw	t4,116(sp)
    114c:	07812f03          	lw	t5,120(sp)
    1150:	07c12f83          	lw	t6,124(sp)
    1154:	34002173          	csrr	sp,mscratch
    1158:	30200073          	mret

0000115c <uart_send_char>:
    115c:	fe010113          	addi	sp,sp,-32
    1160:	00112e23          	sw	ra,28(sp)
    1164:	00812c23          	sw	s0,24(sp)
    1168:	02010413          	addi	s0,sp,32
    116c:	00050793          	mv	a5,a0
    1170:	fef407a3          	sb	a5,-17(s0)
    1174:	400007b7          	lui	a5,0x40000
    1178:	01078793          	addi	a5,a5,16 # 40000010 <_end+0x3ff00010>
    117c:	fef44703          	lbu	a4,-17(s0)
    1180:	00e7a023          	sw	a4,0(a5)
    1184:	00000013          	nop
    1188:	01c12083          	lw	ra,28(sp)
    118c:	01812403          	lw	s0,24(sp)
    1190:	02010113          	addi	sp,sp,32
    1194:	00008067          	ret

00001198 <waste_some_time>:
    1198:	fd010113          	addi	sp,sp,-48
    119c:	02112623          	sw	ra,44(sp)
    11a0:	02812423          	sw	s0,40(sp)
    11a4:	03010413          	addi	s0,sp,48
    11a8:	fca42e23          	sw	a0,-36(s0)
    11ac:	08700793          	li	a5,135
    11b0:	fef42623          	sw	a5,-20(s0)
    11b4:	0100006f          	j	11c4 <waste_some_time+0x2c>
    11b8:	fec42783          	lw	a5,-20(s0)
    11bc:	00178793          	addi	a5,a5,1
    11c0:	fef42623          	sw	a5,-20(s0)
    11c4:	fdc42783          	lw	a5,-36(s0)
    11c8:	fff78713          	addi	a4,a5,-1
    11cc:	fce42e23          	sw	a4,-36(s0)
    11d0:	fe0794e3          	bnez	a5,11b8 <waste_some_time+0x20>
    11d4:	00000013          	nop
    11d8:	00000013          	nop
    11dc:	02c12083          	lw	ra,44(sp)
    11e0:	02812403          	lw	s0,40(sp)
    11e4:	03010113          	addi	sp,sp,48
    11e8:	00008067          	ret

000011ec <main>:
    11ec:	fe010113          	addi	sp,sp,-32
    11f0:	00112e23          	sw	ra,28(sp)
    11f4:	00812c23          	sw	s0,24(sp)
    11f8:	02010413          	addi	s0,sp,32
    11fc:	000027b7          	lui	a5,0x2
    1200:	00078793          	mv	a5,a5
    1204:	fef42423          	sw	a5,-24(s0)
    1208:	fe842783          	lw	a5,-24(s0)
    120c:	fef42623          	sw	a5,-20(s0)
    1210:	0280006f          	j	1238 <main+0x4c>
    1214:	fec42783          	lw	a5,-20(s0)
    1218:	0007c783          	lbu	a5,0(a5) # 2000 <main+0xe14>
    121c:	00078513          	mv	a0,a5
    1220:	f3dff0ef          	jal	115c <uart_send_char>
    1224:	fec42783          	lw	a5,-20(s0)
    1228:	00178793          	addi	a5,a5,1
    122c:	fef42623          	sw	a5,-20(s0)
    1230:	1f400513          	li	a0,500
    1234:	f65ff0ef          	jal	1198 <waste_some_time>
    1238:	fec42783          	lw	a5,-20(s0)
    123c:	0007c783          	lbu	a5,0(a5)
    1240:	fc079ae3          	bnez	a5,1214 <main+0x28>
    1244:	1f400513          	li	a0,500
    1248:	f51ff0ef          	jal	1198 <waste_some_time>
    124c:	fbdff06f          	j	1208 <main+0x1c>
